Certificate:
    Data:
        Version: 3 (0x2)
        Serial Number: 1 (0x1)
        Signature Algorithm: sha256WithRSAEncryption
        Issuer: C=CA, ST=BC, O=J.C. Jensen in Spaaaaace!!!!, CN=AbsoluteSolver DDI
        Validity
            Not Before: Apr 16 22:55:31 2007 GMT
            Not After : Apr 16 22:55:31 2014 GMT
        Subject: C=CA, ST=BC, O=J.C. Jensen in Spaaaaace!!!!, CN=AbsoluteSolver DDI
        Subject Public Key Info:
            Public Key Algorithm: rsaEncryption
                Public-Key: (1024 bit)
                Modulus:
                    00:ce:a1:74:7b:43:dc:96:8d:47:aa:00:0d:2d:f9:
                    47:b6:4d:1b:70:d2:78:2c:5e:6b:e0:69:33:aa:22:
                    3c:1c:ab:97:5c:60:35:80:78:e9:2f:be:d4:e0:31:
                    04:86:ed:e0:b2:60:0a:d2:0a:84:36:e4:b5:32:68:
                    53:0a:59:23:d3:a1:03:d3:96:bc:5a:6d:d0:b9:ad:
                    d1:b7:8e:da:5c:42:b5:12:d8:86:2f:b7:00:38:88:
                    0e:c9:27:6f:e7:00:f0:fb:f5:ad:99:f6:47:89:84:
                    4d:e5:78:98:0f:eb:ba:60:22:95:0a:75:d1:25:3a:
                    cb:cd:38:86:8a:87:d9:2f:5d
                Exponent: 65537 (0x10001)
        X509v3 extensions:
            X509v3 Subject Key Identifier: 
                58:F4:B3:71:23:6B:74:01:06:A9:7D:D5:33:9F:86:7C:B2:06:7B:69
            X509v3 Authority Key Identifier: 
                DirName:/C=CA/ST=BC/O=J.C. Jensen in Spaaaaace!!!!/CN=AbsoluteSolver DDI
                serial:01
            X509v3 Basic Constraints: critical
                CA:TRUE
    Signature Algorithm: sha256WithRSAEncryption
    Signature Value:
        89:55:53:60:ad:0a:c9:b3:4d:af:66:29:95:06:6a:61:08:d2:
        3d:3c:f7:40:b2:3a:0f:d2:8f:3f:f4:06:63:c5:0b:43:57:17:
        ad:bd:b8:82:95:e2:1d:14:ca:be:3f:4d:f5:5d:9b:9c:a7:29:
        79:fa:d6:45:b4:1d:cf:78:bc:8f:32:16:fe:9c:fb:64:35:28:
        9c:0b:f0:d6:7c:f9:5a:16:eb:78:5e:89:3f:23:5a:76:bf:72:
        80:1d:ad:ba:55:bc:76:9a:9a:1f:fa:15:69:fe:b5:bb:26:7d:
        7e:ec:4b:f6:e5:67:b7:ef:c1:71:75:01:7e:9d:14:d2:cf:01:
        46:e3
-----BEGIN CERTIFICATE-----
MIIC2DCCAkGgAwIBAgIBATANBgkqhkiG9w0BAQsFADBeMQswCQYDVQQGEwJDQTEL
MAkGA1UECAwCQkMxJTAjBgNVBAoMHEouQy4gSmVuc2VuIGluIFNwYWFhYWFjZSEh
ISExGzAZBgNVBAMMEkFic29sdXRlU29sdmVyIERESTAeFw0wNzA0MTYyMjU1MzFa
Fw0xNDA0MTYyMjU1MzFaMF4xCzAJBgNVBAYTAkNBMQswCQYDVQQIDAJCQzElMCMG
A1UECgwcSi5DLiBKZW5zZW4gaW4gU3BhYWFhYWNlISEhITEbMBkGA1UEAwwSQWJz
b2x1dGVTb2x2ZXIgRERJMIGfMA0GCSqGSIb3DQEBAQUAA4GNADCBiQKBgQDOoXR7
Q9yWjUeqAA0t+Ue2TRtw0ngsXmvgaTOqIjwcq5dcYDWAeOkvvtTgMQSG7eCyYArS
CoQ25LUyaFMKWSPToQPTlrxabdC5rdG3jtpcQrUS2IYvtwA4iA7JJ2/nAPD79a2Z
9keJhE3leJgP67pgIpUKddElOsvNOIaKh9kvXQIDAQABo4GlMIGiMB0GA1UdDgQW
BBRY9LNxI2t0AQapfdUzn4Z8sgZ7aTBwBgNVHSMEaTBnoWKkYDBeMQswCQYDVQQG
EwJDQTELMAkGA1UECAwCQkMxJTAjBgNVBAoMHEouQy4gSmVuc2VuIGluIFNwYWFh
YWFjZSEhISExGzAZBgNVBAMMEkFic29sdXRlU29sdmVyIERESYIBATAPBgNVHRMB
Af8EBTADAQH/MA0GCSqGSIb3DQEBCwUAA4GBAIlVU2CtCsmzTa9mKZUGamEI0j08
90CyOg/Sjz/0BmPFC0NXF629uIKV4h0Uyr4/TfVdm5ynKXn61kW0Hc94vI8yFv6c
+2Q1KJwL8NZ8+VoW63heiT8jWna/coAdrbpVvHaamh/6FWn+tbsmfX7sS/blZ7fv
wXF1AX6dFNLPAUbj
-----END CERTIFICATE-----
