Certificate:
    Data:
        Version: 3 (0x2)
        Serial Number: 1 (0x1)
        Signature Algorithm: sha256WithRSAEncryption
        Issuer: C=CA, ST=BC, O=BomberFish Industries, CN=DDI
        Validity
            Not Before: Apr 16 22:55:31 2007 GMT
            Not After : Apr 16 22:55:31 2014 GMT
        Subject: C=CA, ST=BC, O=BomberFish Industries, CN=DDI
        Subject Public Key Info:
            Public Key Algorithm: rsaEncryption
                Public-Key: (1024 bit)
                Modulus:
                    00:b5:c7:21:09:52:f1:c0:27:8c:d7:5d:34:11:33:
                    e4:60:84:a8:ec:bb:e0:1c:1f:76:fc:93:3b:fe:d0:
                    a9:7e:7e:09:20:12:fb:2d:00:ef:65:b6:69:c4:40:
                    3d:4e:6a:6d:b6:fa:be:16:41:a1:8a:e5:e6:4c:16:
                    ed:1c:41:72:40:56:66:95:7e:2e:a3:8b:4a:ca:4a:
                    ee:16:f1:f0:ec:f8:e3:43:db:96:8d:bd:c6:f2:ce:
                    98:09:11:4e:62:ca:fe:b9:7c:21:9a:a6:74:55:41:
                    69:04:3f:77:cb:8e:34:bb:ae:36:b3:ed:45:15:ee:
                    01:4d:97:2b:0d:7c:61:e6:4f
                Exponent: 65537 (0x10001)
        X509v3 extensions:
            X509v3 Subject Key Identifier: 
                A8:1C:5D:2D:8F:B7:89:F1:BF:DA:66:6F:BB:E4:CF:20:6B:D9:12:85
            X509v3 Basic Constraints: critical
                CA:TRUE
    Signature Algorithm: sha256WithRSAEncryption
    Signature Value:
        16:19:c3:4f:02:b0:86:94:ba:9c:ae:31:d9:ad:0c:3e:36:8c:
        c2:a9:c9:0a:29:9d:78:fc:2c:30:25:39:4e:e3:49:e1:f4:7d:
        99:cc:4c:d6:49:62:8b:dc:a0:47:3a:8b:8f:32:4a:81:a9:81:
        69:43:02:c5:fd:fe:bf:8d:80:67:e9:2c:72:22:60:84:a1:5e:
        da:c7:35:10:e5:0d:68:b8:dd:6a:42:90:ed:90:ad:72:68:15:
        95:38:f7:ec:9a:c2:5c:65:59:1b:93:c1:65:90:ea:79:cd:70:
        ad:25:1d:9b:c0:4b:2e:52:56:46:35:45:a8:9d:e4:17:22:5c:
        9f:95
-----BEGIN CERTIFICATE-----
MIICODCCAaGgAwIBAgIBATANBgkqhkiG9w0BAQsFADBIMQswCQYDVQQGEwJDQTEL
MAkGA1UECAwCQkMxHjAcBgNVBAoMFUJvbWJlckZpc2ggSW5kdXN0cmllczEMMAoG
A1UEAwwDRERJMB4XDTA3MDQxNjIyNTUzMVoXDTE0MDQxNjIyNTUzMVowSDELMAkG
A1UEBhMCQ0ExCzAJBgNVBAgMAkJDMR4wHAYDVQQKDBVCb21iZXJGaXNoIEluZHVz
dHJpZXMxDDAKBgNVBAMMA0RESTCBnzANBgkqhkiG9w0BAQEFAAOBjQAwgYkCgYEA
tcchCVLxwCeM1100ETPkYISo7LvgHB92/JM7/tCpfn4JIBL7LQDvZbZpxEA9Tmpt
tvq+FkGhiuXmTBbtHEFyQFZmlX4uo4tKykruFvHw7PjjQ9uWjb3G8s6YCRFOYsr+
uXwhmqZ0VUFpBD93y440u642s+1FFe4BTZcrDXxh5k8CAwEAAaMyMDAwHQYDVR0O
BBYEFKgcXS2Pt4nxv9pmb7vkzyBr2RKFMA8GA1UdEwEB/wQFMAMBAf8wDQYJKoZI
hvcNAQELBQADgYEAFhnDTwKwhpS6nK4x2a0MPjaMwqnJCimdePwsMCU5TuNJ4fR9
mcxM1klii9ygRzqLjzJKgamBaUMCxf3+v42AZ+ksciJghKFe2sc1EOUNaLjdakKQ
7ZCtcmgVlTj37JrCXGVZG5PBZZDqec1wrSUdm8BLLlJWRjVFqJ3kFyJcn5U=
-----END CERTIFICATE-----
